; ModuleID = '51/196.c'
source_filename = "51/196.c"
target datalayout = "e-m:e-p270:32:32-p271:32:32-p272:64:64-i64:64-f80:128-n8:16:32:64-S128"
target triple = "x86_64-pc-linux-gnu"

@.str = private unnamed_addr constant [3 x i8] c"%d\00", align 1
@.str.1 = private unnamed_addr constant [3 x i8] c"NO\00", align 1
@.str.2 = private unnamed_addr constant [4 x i8] c"%d\0A\00", align 1

; Function Attrs: noinline nounwind uwtable
define dso_local i32 @main() #0 {
  %1 = alloca i32, align 4
  %2 = alloca i32, align 4
  %3 = alloca i32, align 4
  %4 = alloca i32, align 4
  %5 = alloca i32, align 4
  %6 = alloca i32, align 4
  %7 = alloca [1000 x i32], align 16
  %8 = alloca [1000 x i8], align 16
  %9 = alloca [1000 x [1000 x i8]], align 16
  store i32 0, i32* %1, align 4
  %10 = bitcast [1000 x i32]* %7 to i8*
  call void @llvm.memset.p0i8.i64(i8* align 16 %10, i8 0, i64 4000, i1 false)
  %11 = bitcast [1000 x i8]* %8 to i8*
  call void @llvm.memset.p0i8.i64(i8* align 16 %11, i8 0, i64 1000, i1 false)
  %12 = bitcast [1000 x [1000 x i8]]* %9 to i8*
  call void @llvm.memset.p0i8.i64(i8* align 16 %12, i8 0, i64 1000000, i1 false)
  %13 = call i32 (i8*, ...) @__isoc99_scanf(i8* getelementptr inbounds ([3 x i8], [3 x i8]* @.str, i64 0, i64 0), i32* %2)
  %14 = call i32 @getchar()
  %15 = getelementptr inbounds [1000 x i8], [1000 x i8]* %8, i64 0, i64 0
  %16 = call i32 (i8*, ...) bitcast (i32 (...)* @gets to i32 (i8*, ...)*)(i8* %15)
  %17 = getelementptr inbounds [1000 x i8], [1000 x i8]* %8, i64 0, i64 0
  %18 = call i64 @strlen(i8* %17) #4
  %19 = trunc i64 %18 to i32
  store i32 %19, i32* %3, align 4
  store i32 0, i32* %4, align 4
  br label %20

20:                                               ; preds = %52, %0
  %21 = load i32, i32* %4, align 4
  %22 = load i32, i32* %3, align 4
  %23 = load i32, i32* %2, align 4
  %24 = sub nsw i32 %22, %23
  %25 = add nsw i32 %24, 1
  %26 = icmp slt i32 %21, %25
  br i1 %26, label %27, label %55

27:                                               ; preds = %20
  store i32 0, i32* %6, align 4
  %28 = load i32, i32* %4, align 4
  store i32 %28, i32* %5, align 4
  br label %29

29:                                               ; preds = %48, %27
  %30 = load i32, i32* %5, align 4
  %31 = load i32, i32* %4, align 4
  %32 = load i32, i32* %2, align 4
  %33 = add nsw i32 %31, %32
  %34 = icmp slt i32 %30, %33
  br i1 %34, label %35, label %51

35:                                               ; preds = %29
  %36 = load i32, i32* %5, align 4
  %37 = sext i32 %36 to i64
  %38 = getelementptr inbounds [1000 x i8], [1000 x i8]* %8, i64 0, i64 %37
  %39 = load i8, i8* %38, align 1
  %40 = load i32, i32* %4, align 4
  %41 = sext i32 %40 to i64
  %42 = getelementptr inbounds [1000 x [1000 x i8]], [1000 x [1000 x i8]]* %9, i64 0, i64 %41
  %43 = load i32, i32* %6, align 4
  %44 = sext i32 %43 to i64
  %45 = getelementptr inbounds [1000 x i8], [1000 x i8]* %42, i64 0, i64 %44
  store i8 %39, i8* %45, align 1
  %46 = load i32, i32* %6, align 4
  %47 = add nsw i32 %46, 1
  store i32 %47, i32* %6, align 4
  br label %48

48:                                               ; preds = %35
  %49 = load i32, i32* %5, align 4
  %50 = add nsw i32 %49, 1
  store i32 %50, i32* %5, align 4
  br label %29

51:                                               ; preds = %29
  br label %52

52:                                               ; preds = %51
  %53 = load i32, i32* %4, align 4
  %54 = add nsw i32 %53, 1
  store i32 %54, i32* %4, align 4
  br label %20

55:                                               ; preds = %20
  store i32 0, i32* %4, align 4
  br label %56

56:                                               ; preds = %100, %55
  %57 = load i32, i32* %4, align 4
  %58 = load i32, i32* %3, align 4
  %59 = load i32, i32* %2, align 4
  %60 = sub nsw i32 %58, %59
  %61 = icmp slt i32 %57, %60
  br i1 %61, label %62, label %103

62:                                               ; preds = %56
  %63 = load i32, i32* %4, align 4
  %64 = sext i32 %63 to i64
  %65 = getelementptr inbounds [1000 x i32], [1000 x i32]* %7, i64 0, i64 %64
  store i32 1, i32* %65, align 4
  %66 = load i32, i32* %4, align 4
  %67 = add nsw i32 %66, 1
  store i32 %67, i32* %5, align 4
  br label %68

68:                                               ; preds = %96, %62
  %69 = load i32, i32* %5, align 4
  %70 = load i32, i32* %3, align 4
  %71 = load i32, i32* %2, align 4
  %72 = sub nsw i32 %70, %71
  %73 = add nsw i32 %72, 1
  %74 = icmp slt i32 %69, %73
  br i1 %74, label %75, label %99

75:                                               ; preds = %68
  %76 = load i32, i32* %4, align 4
  %77 = sext i32 %76 to i64
  %78 = getelementptr inbounds [1000 x [1000 x i8]], [1000 x [1000 x i8]]* %9, i64 0, i64 %77
  %79 = getelementptr inbounds [1000 x i8], [1000 x i8]* %78, i64 0, i64 0
  %80 = load i32, i32* %5, align 4
  %81 = sext i32 %80 to i64
  %82 = getelementptr inbounds [1000 x [1000 x i8]], [1000 x [1000 x i8]]* %9, i64 0, i64 %81
  %83 = getelementptr inbounds [1000 x i8], [1000 x i8]* %82, i64 0, i64 0
  %84 = call i32 @strcmp(i8* %79, i8* %83) #4
  %85 = icmp eq i32 %84, 0
  br i1 %85, label %86, label %95

86:                                               ; preds = %75
  %87 = load i32, i32* %4, align 4
  %88 = sext i32 %87 to i64
  %89 = getelementptr inbounds [1000 x i32], [1000 x i32]* %7, i64 0, i64 %88
  %90 = load i32, i32* %89, align 4
  %91 = add nsw i32 %90, 1
  %92 = load i32, i32* %4, align 4
  %93 = sext i32 %92 to i64
  %94 = getelementptr inbounds [1000 x i32], [1000 x i32]* %7, i64 0, i64 %93
  store i32 %91, i32* %94, align 4
  br label %95

95:                                               ; preds = %86, %75
  br label %96

96:                                               ; preds = %95
  %97 = load i32, i32* %5, align 4
  %98 = add nsw i32 %97, 1
  store i32 %98, i32* %5, align 4
  br label %68

99:                                               ; preds = %68
  br label %100

100:                                              ; preds = %99
  %101 = load i32, i32* %4, align 4
  %102 = add nsw i32 %101, 1
  store i32 %102, i32* %4, align 4
  br label %56

103:                                              ; preds = %56
  store i32 0, i32* %5, align 4
  store i32 0, i32* %4, align 4
  br label %104

104:                                              ; preds = %123, %103
  %105 = load i32, i32* %4, align 4
  %106 = load i32, i32* %3, align 4
  %107 = load i32, i32* %2, align 4
  %108 = sub nsw i32 %106, %107
  %109 = icmp slt i32 %105, %108
  br i1 %109, label %110, label %126

110:                                              ; preds = %104
  %111 = load i32, i32* %4, align 4
  %112 = sext i32 %111 to i64
  %113 = getelementptr inbounds [1000 x i32], [1000 x i32]* %7, i64 0, i64 %112
  %114 = load i32, i32* %113, align 4
  %115 = load i32, i32* %5, align 4
  %116 = icmp sgt i32 %114, %115
  br i1 %116, label %117, label %122

117:                                              ; preds = %110
  %118 = load i32, i32* %4, align 4
  %119 = sext i32 %118 to i64
  %120 = getelementptr inbounds [1000 x i32], [1000 x i32]* %7, i64 0, i64 %119
  %121 = load i32, i32* %120, align 4
  store i32 %121, i32* %5, align 4
  br label %122

122:                                              ; preds = %117, %110
  br label %123

123:                                              ; preds = %122
  %124 = load i32, i32* %4, align 4
  %125 = add nsw i32 %124, 1
  store i32 %125, i32* %4, align 4
  br label %104

126:                                              ; preds = %104
  %127 = load i32, i32* %5, align 4
  %128 = icmp eq i32 %127, 1
  br i1 %128, label %129, label %131

129:                                              ; preds = %126
  %130 = call i32 (i8*, ...) @printf(i8* getelementptr inbounds ([3 x i8], [3 x i8]* @.str.1, i64 0, i64 0))
  br label %158

131:                                              ; preds = %126
  %132 = load i32, i32* %5, align 4
  %133 = call i32 (i8*, ...) @printf(i8* getelementptr inbounds ([4 x i8], [4 x i8]* @.str.2, i64 0, i64 0), i32 %132)
  store i32 0, i32* %4, align 4
  br label %134

134:                                              ; preds = %154, %131
  %135 = load i32, i32* %4, align 4
  %136 = load i32, i32* %3, align 4
  %137 = load i32, i32* %2, align 4
  %138 = sub nsw i32 %136, %137
  %139 = icmp slt i32 %135, %138
  br i1 %139, label %140, label %157

140:                                              ; preds = %134
  %141 = load i32, i32* %4, align 4
  %142 = sext i32 %141 to i64
  %143 = getelementptr inbounds [1000 x i32], [1000 x i32]* %7, i64 0, i64 %142
  %144 = load i32, i32* %143, align 4
  %145 = load i32, i32* %5, align 4
  %146 = icmp eq i32 %144, %145
  br i1 %146, label %147, label %153

147:                                              ; preds = %140
  %148 = load i32, i32* %4, align 4
  %149 = sext i32 %148 to i64
  %150 = getelementptr inbounds [1000 x [1000 x i8]], [1000 x [1000 x i8]]* %9, i64 0, i64 %149
  %151 = getelementptr inbounds [1000 x i8], [1000 x i8]* %150, i64 0, i64 0
  %152 = call i32 @puts(i8* %151)
  br label %153

153:                                              ; preds = %147, %140
  br label %154

154:                                              ; preds = %153
  %155 = load i32, i32* %4, align 4
  %156 = add nsw i32 %155, 1
  store i32 %156, i32* %4, align 4
  br label %134

157:                                              ; preds = %134
  br label %158

158:                                              ; preds = %157, %129
  ret i32 0
}

; Function Attrs: argmemonly nounwind willreturn
declare void @llvm.memset.p0i8.i64(i8* nocapture writeonly, i8, i64, i1 immarg) #1

declare dso_local i32 @__isoc99_scanf(i8*, ...) #2

declare dso_local i32 @getchar() #2

declare dso_local i32 @gets(...) #2

; Function Attrs: nounwind readonly
declare dso_local i64 @strlen(i8*) #3

; Function Attrs: nounwind readonly
declare dso_local i32 @strcmp(i8*, i8*) #3

declare dso_local i32 @printf(i8*, ...) #2

declare dso_local i32 @puts(i8*) #2


!llvm.module.flags = !{!0}
!llvm.ident = !{!1}

!0 = !{i32 1, !"wchar_size", i32 4}
!1 = !{!"clang version 10.0.0-4ubuntu1 "}
